; Function Attrs: mustprogress uwtable
define hidden void @_ZN11skip_tacticclERK3refI4goalER11sref_bufferIS1_Lj16EE(ptr nocapture nonnull readnone align 8 %this, ptr nocapture noundef nonnull readonly align 8 dereferenceable(8) %in, ptr noundef nonnull align 8 dereferenceable(144) %result) unnamed_addr #3 align 2 {
entry:
  %0 = load ptr, ptr %in, align 8
  %tobool.not.i.i.i = icmp eq ptr %0, null
  br i1 %tobool.not.i.i.i, label %_ZN15ref_buffer_coreI4goal21ref_unmanaged_wrapperIS0_ELj16EE7inc_refEPS0_.exit.i, label %if.then.i.i.i

if.then.i.i.i:                                    ; preds = %entry
  %m_ref_count.i.i.i.i = getelementptr inbounds i8, ptr %0, i64 32
  %1 = load i32, ptr %m_ref_count.i.i.i.i, align 8
  %inc.i.i.i.i = add i32 %1, 1
  store i32 %inc.i.i.i.i, ptr %m_ref_count.i.i.i.i, align 8
  br label %_ZN15ref_buffer_coreI4goal21ref_unmanaged_wrapperIS0_ELj16EE7inc_refEPS0_.exit.i

_ZN15ref_buffer_coreI4goal21ref_unmanaged_wrapperIS0_ELj16EE7inc_refEPS0_.exit.i: ; preds = %if.then.i.i.i, %entry
  %m_pos.i.i = getelementptr inbounds i8, ptr %result, i64 8
  %2 = load i32, ptr %m_pos.i.i, align 8
  %m_capacity.i.i = getelementptr inbounds i8, ptr %result, i64 12
  %3 = load i32, ptr %m_capacity.i.i, align 4
  %cmp.not.i.i = icmp ult i32 %2, %3
  br i1 %cmp.not.i.i, label %entry.if.end_crit_edge.i.i, label %if.then.i.i

entry.if.end_crit_edge.i.i:                       ; preds = %_ZN15ref_buffer_coreI4goal21ref_unmanaged_wrapperIS0_ELj16EE7inc_refEPS0_.exit.i
  %.pre.i.i = load ptr, ptr %result, align 8
  br label %_ZN15ref_buffer_coreI4goal21ref_unmanaged_wrapperIS0_ELj16EE9push_backEPS0_.exit

if.then.i.i:                                      ; preds = %_ZN15ref_buffer_coreI4goal21ref_unmanaged_wrapperIS0_ELj16EE7inc_refEPS0_.exit.i
  %shl.i.i.i = shl i32 %3, 1
  %conv.i.i.i = zext i32 %shl.i.i.i to i64
  %mul.i.i.i = shl nuw nsw i64 %conv.i.i.i, 3
  %call.i.i.i = tail call noalias noundef ptr @_ZN6memory8allocateEm(i64 noundef %mul.i.i.i)
  %4 = load i32, ptr %m_pos.i.i, align 8
  %cmp6.not.i.i.i = icmp eq i32 %4, 0
  %.pre.i.i.i = load ptr, ptr %result, align 8
  br i1 %cmp6.not.i.i.i, label %for.end.i.i.i, label %for.body.lr.ph.i.i.i

for.body.lr.ph.i.i.i:                             ; preds = %if.then.i.i
  %wide.trip.count.i.i.i = zext i32 %4 to i64
  br label %for.body.i.i.i

for.body.i.i.i:                                   ; preds = %for.body.i.i.i, %for.body.lr.ph.i.i.i
  %indvars.iv.i.i.i = phi i64 [ 0, %for.body.lr.ph.i.i.i ], [ %indvars.iv.next.i.i.i, %for.body.i.i.i ]
  %arrayidx.i.i.i = getelementptr inbounds ptr, ptr %call.i.i.i, i64 %indvars.iv.i.i.i
  %arrayidx3.i.i.i = getelementptr inbounds ptr, ptr %.pre.i.i.i, i64 %indvars.iv.i.i.i
  %5 = load ptr, ptr %arrayidx3.i.i.i, align 8
  store ptr %5, ptr %arrayidx.i.i.i, align 8
  %indvars.iv.next.i.i.i = add nuw nsw i64 %indvars.iv.i.i.i, 1
  %exitcond.not.i.i.i = icmp eq i64 %indvars.iv.next.i.i.i, %wide.trip.count.i.i.i
  br i1 %exitcond.not.i.i.i, label %for.end.i.i.i, label %for.body.i.i.i, !llvm.loop !4

for.end.i.i.i:                                    ; preds = %for.body.i.i.i, %if.then.i.i
  %m_initial_buffer.i.i.i.i = getelementptr inbounds i8, ptr %result, i64 16
  %cmp.not.i.i.i.i = icmp eq ptr %.pre.i.i.i, %m_initial_buffer.i.i.i.i
  %cmp.i.i.i.i.i = icmp eq ptr %.pre.i.i.i, null
  %or.cond.i.i.i.i = or i1 %cmp.not.i.i.i.i, %cmp.i.i.i.i.i
  br i1 %or.cond.i.i.i.i, label %_ZN6bufferIP4goalLb0ELj16EE6expandEv.exit.i.i, label %if.end.i.i.i.i.i

if.end.i.i.i.i.i:                                 ; preds = %for.end.i.i.i
  tail call void @_ZN6memory10deallocateEPv(ptr noundef nonnull %.pre.i.i.i)
  %.pre1.pre.i.i = load i32, ptr %m_pos.i.i, align 8
  br label %_ZN6bufferIP4goalLb0ELj16EE6expandEv.exit.i.i

_ZN6bufferIP4goalLb0ELj16EE6expandEv.exit.i.i:    ; preds = %if.end.i.i.i.i.i, %for.end.i.i.i
  %.pre1.i.i = phi i32 [ %4, %for.end.i.i.i ], [ %.pre1.pre.i.i, %if.end.i.i.i.i.i ]
  store ptr %call.i.i.i, ptr %result, align 8
  store i32 %shl.i.i.i, ptr %m_capacity.i.i, align 4
  br label %_ZN15ref_buffer_coreI4goal21ref_unmanaged_wrapperIS0_ELj16EE9push_backEPS0_.exit

_ZN15ref_buffer_coreI4goal21ref_unmanaged_wrapperIS0_ELj16EE9push_backEPS0_.exit: ; preds = %entry.if.end_crit_edge.i.i, %_ZN6bufferIP4goalLb0ELj16EE6expandEv.exit.i.i
  %6 = phi i32 [ %2, %entry.if.end_crit_edge.i.i ], [ %.pre1.i.i, %_ZN6bufferIP4goalLb0ELj16EE6expandEv.exit.i.i ]
  %7 = phi ptr [ %.pre.i.i, %entry.if.end_crit_edge.i.i ], [ %call.i.i.i, %_ZN6bufferIP4goalLb0ELj16EE6expandEv.exit.i.i ]
  %idx.ext.i.i = zext i32 %6 to i64
  %add.ptr.i.i = getelementptr inbounds ptr, ptr %7, i64 %idx.ext.i.i
  store ptr %0, ptr %add.ptr.i.i, align 8
  %8 = load i32, ptr %m_pos.i.i, align 8
  %inc.i.i = add i32 %8, 1
  store i32 %inc.i.i, ptr %m_pos.i.i, align 8
  ret void
}